target datalayout = "e-m:e-p270:32:32-p271:32:32-p272:64:64-i64:64-i128:128-f80:128-n8:16:32:64-S128"
target triple = "x86_64-pc-linux-gnu"

@.str = private unnamed_addr constant [1 x i8] zeroinitializer, align 1
@.str.1 = private unnamed_addr constant [2 x i8] c" \00", align 1

; Function Attrs: null_pointer_is_valid sspstrong uwtable
define hidden ptr @get_args_as_string(i32 noundef %0, ptr noundef %1, i32 noundef %2) #0 {
  %4 = alloca ptr, align 8
  %5 = alloca i32, align 4
  %6 = alloca ptr, align 8
  %7 = alloca i32, align 4
  %8 = alloca i32, align 4
  %9 = alloca i32, align 4
  %10 = alloca ptr, align 8
  %11 = alloca i32, align 4
  store i32 %0, ptr %5, align 4
  store ptr %1, ptr %6, align 8
  store i32 %2, ptr %7, align 4
  call void @llvm.lifetime.start.p0(i64 4, ptr %8) #10
  call void @llvm.lifetime.start.p0(i64 4, ptr %9) #10
  call void @llvm.lifetime.start.p0(i64 8, ptr %10) #10
  store i32 0, ptr %8, align 4
  %12 = load i32, ptr %7, align 4
  store i32 %12, ptr %9, align 4
  br label %13

13:                                               ; preds = %29, %3
  %14 = load i32, ptr %9, align 4
  %15 = load i32, ptr %5, align 4
  %16 = icmp slt i32 %14, %15
  br i1 %16, label %17, label %32

17:                                               ; preds = %13
  %18 = load ptr, ptr %6, align 8
  %19 = load i32, ptr %9, align 4
  %20 = sext i32 %19 to i64
  %21 = getelementptr ptr, ptr %18, i64 %20
  %22 = load ptr, ptr %21, align 8
  %23 = call i64 @strlen(ptr noundef %22) #11
  %24 = trunc i64 %23 to i32
  %25 = load i32, ptr %8, align 4
  %26 = add i32 %25, %24
  store i32 %26, ptr %8, align 4
  %27 = load i32, ptr %8, align 4
  %28 = add i32 %27, 1
  store i32 %28, ptr %8, align 4
  br label %29

29:                                               ; preds = %17
  %30 = load i32, ptr %9, align 4
  %31 = add i32 %30, 1
  store i32 %31, ptr %9, align 4
  br label %13, !llvm.loop !6

32:                                               ; preds = %13
  %33 = load i32, ptr %8, align 4
  %34 = icmp eq i32 %33, 0
  br i1 %34, label %35, label %37

35:                                               ; preds = %32
  %36 = call noalias ptr @g_strdup(ptr noundef @.str)
  store ptr %36, ptr %4, align 8
  store i32 1, ptr %11, align 4
  br label %67

37:                                               ; preds = %32
  %38 = load i32, ptr %8, align 4
  %39 = sext i32 %38 to i64
  %40 = call noalias ptr @g_malloc(i64 noundef %39) #12
  store ptr %40, ptr %10, align 8
  %41 = load ptr, ptr %10, align 8
  %42 = getelementptr i8, ptr %41, i64 0
  store i8 0, ptr %42, align 1
  %43 = load i32, ptr %7, align 4
  store i32 %43, ptr %9, align 4
  br label %44

44:                                               ; preds = %60, %37
  %45 = load ptr, ptr %10, align 8
  %46 = load ptr, ptr %6, align 8
  %47 = load i32, ptr %9, align 4
  %48 = sext i32 %47 to i64
  %49 = getelementptr ptr, ptr %46, i64 %48
  %50 = load ptr, ptr %49, align 8
  %51 = load i32, ptr %8, align 4
  %52 = sext i32 %51 to i64
  %53 = call i64 @g_strlcat(ptr noundef %45, ptr noundef %50, i64 noundef %52)
  %54 = load i32, ptr %9, align 4
  %55 = add i32 %54, 1
  store i32 %55, ptr %9, align 4
  %56 = load i32, ptr %9, align 4
  %57 = load i32, ptr %5, align 4
  %58 = icmp eq i32 %56, %57
  br i1 %58, label %59, label %60

59:                                               ; preds = %44
  br label %65

60:                                               ; preds = %44
  %61 = load ptr, ptr %10, align 8
  %62 = load i32, ptr %8, align 4
  %63 = sext i32 %62 to i64
  %64 = call i64 @g_strlcat(ptr noundef %61, ptr noundef @.str.1, i64 noundef %63)
  br label %44

65:                                               ; preds = %59
  %66 = load ptr, ptr %10, align 8
  store ptr %66, ptr %4, align 8
  store i32 1, ptr %11, align 4
  br label %67

67:                                               ; preds = %65, %35
  call void @llvm.lifetime.end.p0(i64 8, ptr %10) #10
  call void @llvm.lifetime.end.p0(i64 4, ptr %9) #10
  call void @llvm.lifetime.end.p0(i64 4, ptr %8) #10
  %68 = load ptr, ptr %4, align 8
  ret ptr %68
}