; Function Attrs: null_pointer_is_valid sspstrong uwtable
define hidden ptr @get_args_as_string(i32 noundef %0, ptr noundef readonly captures(none) %1, i32 noundef %2) local_unnamed_addr #0 {
  %4 = icmp slt i32 %2, %0
  br i1 %4, label %.lr.ph.preheader, label %._crit_edge.thread

.lr.ph.preheader:                                 ; preds = %3
  %5 = sext i32 %2 to i64
  %wide.trip.count = sext i32 %0 to i64
  br label %.lr.ph

.lr.ph:                                           ; preds = %.lr.ph.preheader, %.lr.ph
  %indvars.iv = phi i64 [ %5, %.lr.ph.preheader ], [ %indvars.iv.next, %.lr.ph ]
  %.02326 = phi i32 [ 0, %.lr.ph.preheader ], [ %11, %.lr.ph ]
  %6 = getelementptr ptr, ptr %1, i64 %indvars.iv
  %7 = load ptr, ptr %6, align 8
  %8 = tail call i64 @strlen(ptr noundef %7) #10
  %9 = trunc i64 %8 to i32
  %10 = add i32 %.02326, 1
  %11 = add i32 %10, %9
  %indvars.iv.next = add nsw i64 %indvars.iv, 1
  %exitcond.not = icmp eq i64 %indvars.iv.next, %wide.trip.count
  br i1 %exitcond.not, label %._crit_edge, label %.lr.ph, !llvm.loop !6

._crit_edge:                                      ; preds = %.lr.ph
  %12 = icmp eq i32 %11, 0
  br i1 %12, label %._crit_edge.thread, label %14

._crit_edge.thread:                               ; preds = %3, %._crit_edge
  %13 = tail call noalias ptr @g_strdup(ptr noundef nonnull @.str)
  br label %.loopexit

14:                                               ; preds = %._crit_edge
  %15 = sext i32 %11 to i64
  %16 = tail call noalias ptr @g_malloc(i64 noundef %15) #11
  store i8 0, ptr %16, align 1
  %17 = sext i32 %2 to i64
  %18 = getelementptr ptr, ptr %1, i64 %17
  %19 = load ptr, ptr %18, align 8
  %20 = tail call i64 @g_strlcat(ptr noundef %16, ptr noundef %19, i64 noundef %15)
  %21 = add i32 %2, 1
  %22 = icmp eq i32 %21, %0
  br i1 %22, label %.loopexit, label %.lr.ph29

.lr.ph29:                                         ; preds = %14, %.lr.ph29
  %23 = phi i32 [ %29, %.lr.ph29 ], [ %21, %14 ]
  %24 = tail call i64 @g_strlcat(ptr noundef %16, ptr noundef nonnull @.str.1, i64 noundef %15)
  %25 = sext i32 %23 to i64
  %26 = getelementptr ptr, ptr %1, i64 %25
  %27 = load ptr, ptr %26, align 8
  %28 = tail call i64 @g_strlcat(ptr noundef %16, ptr noundef %27, i64 noundef %15)
  %29 = add i32 %23, 1
  %30 = icmp eq i32 %29, %0
  br i1 %30, label %.loopexit, label %.lr.ph29

.loopexit:                                        ; preds = %.lr.ph29, %14, %._crit_edge.thread
  %.0 = phi ptr [ %13, %._crit_edge.thread ], [ %16, %14 ], [ %16, %.lr.ph29 ]
  ret ptr %.0
}